target datalayout = "e-m:e-p270:32:32-p271:32:32-p272:64:64-i64:64-i128:128-f80:128-n8:16:32:64-S128"
target triple = "x86_64-pc-linux-gnu"

%"class.datalog::instruction_block" = type { %class.ptr_vector.141, ptr }
%class.ptr_vector.141 = type { %class.vector.142 }
%class.vector.142 = type { ptr }

; Function Attrs: mustprogress nounwind uwtable
define linkonce_odr hidden noundef i32 @_ZNK6vectorIPN7datalog11instructionELb0EjE4sizeEv(ptr noundef nonnull align 8 dereferenceable(8) %0) #5 comdat align 2 {
  %2 = alloca i32, align 4
  %3 = alloca ptr, align 8
  store ptr %0, ptr %3, align 8, !tbaa !422
  %4 = load ptr, ptr %3, align 8
  %5 = getelementptr inbounds nuw %class.vector.142, ptr %4, i32 0, i32 0
  %6 = load ptr, ptr %5, align 8, !tbaa !424
  %7 = icmp eq ptr %6, null
  br i1 %7, label %8, label %9

8:                                                ; preds = %1
  store i32 0, ptr %2, align 4
  br label %14

9:                                                ; preds = %1
  %10 = getelementptr inbounds nuw %class.vector.142, ptr %4, i32 0, i32 0
  %11 = load ptr, ptr %10, align 8, !tbaa !424
  %12 = getelementptr inbounds i32, ptr %11, i64 -1
  %13 = load i32, ptr %12, align 4, !tbaa !38
  store i32 %13, ptr %2, align 4
  br label %14

14:                                               ; preds = %9, %8
  %15 = load i32, ptr %2, align 4
  ret i32 %15
}

; Function Attrs: mustprogress nounwind uwtable
define linkonce_odr hidden void @_ZN6vectorIPN7datalog11instructionELb0EjE5resetEv(ptr noundef nonnull align 8 dereferenceable(8) %0) #5 comdat align 2 {
  %2 = alloca ptr, align 8
  store ptr %0, ptr %2, align 8, !tbaa !422
  %3 = load ptr, ptr %2, align 8
  %4 = getelementptr inbounds nuw %class.vector.142, ptr %3, i32 0, i32 0
  %5 = load ptr, ptr %4, align 8, !tbaa !424
  %6 = icmp ne ptr %5, null
  br i1 %6, label %7, label %11

7:                                                ; preds = %1
  %8 = getelementptr inbounds nuw %class.vector.142, ptr %3, i32 0, i32 0
  %9 = load ptr, ptr %8, align 8, !tbaa !424
  %10 = getelementptr inbounds i32, ptr %9, i64 -1
  store i32 0, ptr %10, align 4, !tbaa !38
  br label %11

11:                                               ; preds = %7, %1
  ret void
}

; Function Attrs: mustprogress uwtable
define linkonce_odr hidden void @_Z7deallocIN7datalog11instructionEEvPT_(ptr noundef %0) #4 comdat {
  %2 = alloca ptr, align 8
  store ptr %0, ptr %2, align 8, !tbaa !291
  %3 = load ptr, ptr %2, align 8, !tbaa !291
  %4 = icmp eq ptr %3, null
  br i1 %4, label %5, label %6

5:                                                ; preds = %1
  br label %12

6:                                                ; preds = %1
  %7 = load ptr, ptr %2, align 8, !tbaa !291
  %8 = load ptr, ptr %7, align 8, !tbaa !36
  %9 = getelementptr inbounds ptr, ptr %8, i64 3
  %10 = load ptr, ptr %9, align 8
  call void %10(ptr noundef nonnull align 8 dereferenceable(72) %7) #3
  %11 = load ptr, ptr %2, align 8, !tbaa !291
  call void @_ZN6memory10deallocateEPv(ptr noundef %11)
  br label %12

12:                                               ; preds = %6, %5
  ret void
}

; Function Attrs: mustprogress uwtable
define linkonce_odr hidden noundef ptr @_ZN6vectorIPN7datalog11instructionELb0EjE3endEv(ptr noundef nonnull align 8 dereferenceable(8) %0) #4 comdat align 2 {
  %2 = alloca ptr, align 8
  store ptr %0, ptr %2, align 8, !tbaa !422
  %3 = load ptr, ptr %2, align 8
  %4 = getelementptr inbounds nuw %class.vector.142, ptr %3, i32 0, i32 0
  %5 = load ptr, ptr %4, align 8, !tbaa !424
  %6 = call noundef i32 @_ZNK6vectorIPN7datalog11instructionELb0EjE4sizeEv(ptr noundef nonnull align 8 dereferenceable(8) %3)
  %7 = zext i32 %6 to i64
  %8 = getelementptr inbounds nuw ptr, ptr %5, i64 %7
  ret ptr %8
}

; Function Attrs: mustprogress nounwind uwtable
define linkonce_odr hidden noundef ptr @_ZN6vectorIPN7datalog11instructionELb0EjE5beginEv(ptr noundef nonnull align 8 dereferenceable(8) %0) #5 comdat align 2 {
  %2 = alloca ptr, align 8
  store ptr %0, ptr %2, align 8, !tbaa !422
  %3 = load ptr, ptr %2, align 8
  %4 = getelementptr inbounds nuw %class.vector.142, ptr %3, i32 0, i32 0
  %5 = load ptr, ptr %4, align 8, !tbaa !424
  ret ptr %5
}

; Function Attrs: mustprogress uwtable
define hidden void @_ZN7datalog17instruction_block5resetEv(ptr noundef nonnull align 8 dereferenceable(16) %0) #4 align 2 {
  %2 = alloca ptr, align 8
  %3 = alloca ptr, align 8
  %4 = alloca ptr, align 8
  %5 = alloca ptr, align 8
  %6 = alloca ptr, align 8
  store ptr %0, ptr %2, align 8, !tbaa !327
  %7 = load ptr, ptr %2, align 8
  call void @llvm.lifetime.start.p0(i64 8, ptr %3) #3
  %8 = getelementptr inbounds nuw %"class.datalog::instruction_block", ptr %7, i32 0, i32 0
  store ptr %8, ptr %3, align 8, !tbaa !413
  call void @llvm.lifetime.start.p0(i64 8, ptr %4) #3
  %9 = load ptr, ptr %3, align 8, !tbaa !413
  %10 = call noundef ptr @_ZN6vectorIPN7datalog11instructionELb0EjE5beginEv(ptr noundef nonnull align 8 dereferenceable(8) %9)
  store ptr %10, ptr %4, align 8, !tbaa !415
  call void @llvm.lifetime.start.p0(i64 8, ptr %5) #3
  %11 = load ptr, ptr %3, align 8, !tbaa !413
  %12 = call noundef ptr @_ZN6vectorIPN7datalog11instructionELb0EjE3endEv(ptr noundef nonnull align 8 dereferenceable(8) %11)
  store ptr %12, ptr %5, align 8, !tbaa !415
  br label %13

13:                                               ; preds = %22, %1
  %14 = load ptr, ptr %4, align 8, !tbaa !415
  %15 = load ptr, ptr %5, align 8, !tbaa !415
  %16 = icmp ne ptr %14, %15
  br i1 %16, label %18, label %17

17:                                               ; preds = %13
  call void @llvm.lifetime.end.p0(i64 8, ptr %5) #3
  call void @llvm.lifetime.end.p0(i64 8, ptr %4) #3
  call void @llvm.lifetime.end.p0(i64 8, ptr %3) #3
  br label %25

18:                                               ; preds = %13
  call void @llvm.lifetime.start.p0(i64 8, ptr %6) #3
  %19 = load ptr, ptr %4, align 8, !tbaa !415
  %20 = load ptr, ptr %19, align 8, !tbaa !291
  store ptr %20, ptr %6, align 8, !tbaa !291
  %21 = load ptr, ptr %6, align 8, !tbaa !291
  call void @_Z7deallocIN7datalog11instructionEEvPT_(ptr noundef %21)
  call void @llvm.lifetime.end.p0(i64 8, ptr %6) #3
  br label %22

22:                                               ; preds = %18
  %23 = load ptr, ptr %4, align 8, !tbaa !415
  %24 = getelementptr inbounds nuw ptr, ptr %23, i32 1
  store ptr %24, ptr %4, align 8, !tbaa !415
  br label %13

25:                                               ; preds = %17
  %26 = getelementptr inbounds nuw %"class.datalog::instruction_block", ptr %7, i32 0, i32 0
  call void @_ZN6vectorIPN7datalog11instructionELb0EjE5resetEv(ptr noundef nonnull align 8 dereferenceable(8) %26)
  %27 = getelementptr inbounds nuw %"class.datalog::instruction_block", ptr %7, i32 0, i32 1
  store ptr null, ptr %27, align 8, !tbaa !417
  ret void
}