; Function Attrs: mustprogress uwtable
define hidden void @_ZN7datalog17instruction_block5resetEv(ptr noundef nonnull align 8 captures(none) dereferenceable(16) %0) local_unnamed_addr #3 align 2 {
  %2 = load ptr, ptr %0, align 8, !tbaa !381
  %3 = icmp eq ptr %2, null
  br i1 %3, label %_ZN6vectorIPN7datalog11instructionELb0EjE5resetEv.exit, label %_ZN6vectorIPN7datalog11instructionELb0EjE3endEv.exit

_ZN6vectorIPN7datalog11instructionELb0EjE3endEv.exit: ; preds = %1
  %4 = getelementptr inbounds i8, ptr %2, i64 -4
  %5 = load i32, ptr %4, align 4, !tbaa !33
  %6 = zext i32 %5 to i64
  %7 = getelementptr inbounds nuw ptr, ptr %2, i64 %6
  %.not8 = icmp eq i32 %5, 0
  br i1 %.not8, label %._crit_edge.thread13, label %.lr.ph

._crit_edge:                                      ; preds = %_Z7deallocIN7datalog11instructionEEvPT_.exit
  %.pre = load ptr, ptr %0, align 8, !tbaa !381
  %.not.i = icmp eq ptr %.pre, null
  br i1 %.not.i, label %_ZN6vectorIPN7datalog11instructionELb0EjE5resetEv.exit, label %._crit_edge.thread13

._crit_edge.thread13:                             ; preds = %_ZN6vectorIPN7datalog11instructionELb0EjE3endEv.exit, %._crit_edge
  %8 = phi ptr [ %.pre, %._crit_edge ], [ %2, %_ZN6vectorIPN7datalog11instructionELb0EjE3endEv.exit ]
  %9 = getelementptr inbounds i8, ptr %8, i64 -4
  store i32 0, ptr %9, align 4, !tbaa !33
  br label %_ZN6vectorIPN7datalog11instructionELb0EjE5resetEv.exit

_ZN6vectorIPN7datalog11instructionELb0EjE5resetEv.exit: ; preds = %1, %._crit_edge, %._crit_edge.thread13
  %10 = getelementptr inbounds nuw i8, ptr %0, i64 8
  store ptr null, ptr %10, align 8, !tbaa !386
  ret void

.lr.ph:                                           ; preds = %_ZN6vectorIPN7datalog11instructionELb0EjE3endEv.exit, %_Z7deallocIN7datalog11instructionEEvPT_.exit
  %.09 = phi ptr [ %17, %_Z7deallocIN7datalog11instructionEEvPT_.exit ], [ %2, %_ZN6vectorIPN7datalog11instructionELb0EjE3endEv.exit ]
  %11 = load ptr, ptr %.09, align 8, !tbaa !384
  %12 = icmp eq ptr %11, null
  br i1 %12, label %_Z7deallocIN7datalog11instructionEEvPT_.exit, label %13

13:                                               ; preds = %.lr.ph
  %14 = load ptr, ptr %11, align 8, !tbaa !43
  %15 = getelementptr inbounds nuw i8, ptr %14, i64 24
  %16 = load ptr, ptr %15, align 8
  tail call void %16(ptr noundef nonnull align 8 dereferenceable(72) %11) #25
  tail call void @_ZN6memory10deallocateEPv(ptr noundef nonnull %11)
  br label %_Z7deallocIN7datalog11instructionEEvPT_.exit

_Z7deallocIN7datalog11instructionEEvPT_.exit:     ; preds = %.lr.ph, %13
  %17 = getelementptr inbounds nuw i8, ptr %.09, i64 8
  %.not = icmp eq ptr %17, %7
  br i1 %.not, label %._crit_edge, label %.lr.ph
}